target datalayout = "e-m:e-p270:32:32-p271:32:32-p272:64:64-i64:64-i128:128-f80:128-n8:16:32:64-S128"
target triple = "x86_64-pc-linux-gnu"

%struct.TIDBitmap = type { i32, ptr, i32, ptr, i32, i32, i32, i32, i32, i32, %struct.PagetableEntry, ptr, ptr, i64, i64, i64, i64, ptr }
%struct.PagetableEntry = type { i32, i8, i8, i8, [5 x i64] }
%struct.pagetable_hash = type { i64, i32, i32, i32, ptr, ptr, ptr }
%struct.pagetable_iterator = type { i32, i32, i8 }
%struct.TBMPrivateIterator = type { ptr, i32, i32, i32, %struct.TBMIterateResult }
%struct.TBMIterateResult = type { i32, i32, i8, [0 x i16] }

; Function Attrs: inlinehint nounwind uwtable
define internal ptr @pagetable_iterate(ptr noundef %0, ptr noundef %1) #2 {
  %3 = alloca ptr, align 8
  %4 = alloca ptr, align 8
  %5 = alloca ptr, align 8
  %6 = alloca ptr, align 8
  %7 = alloca i32, align 4
  store ptr %0, ptr %4, align 8
  store ptr %1, ptr %5, align 8
  br label %8

8:                                                ; preds = %62, %2
  %9 = load ptr, ptr %5, align 8
  %10 = getelementptr inbounds nuw %struct.pagetable_iterator, ptr %9, i32 0, i32 2
  %11 = load i8, ptr %10, align 4, !range !4, !noundef !5
  %12 = trunc i8 %11 to i1
  %13 = xor i1 %12, true
  br i1 %13, label %14, label %63

14:                                               ; preds = %8
  call void @llvm.lifetime.start.p0(i64 8, ptr %6) #9
  %15 = load ptr, ptr %4, align 8
  %16 = getelementptr inbounds nuw %struct.pagetable_hash, ptr %15, i32 0, i32 4
  %17 = load ptr, ptr %16, align 8
  %18 = load ptr, ptr %5, align 8
  %19 = getelementptr inbounds nuw %struct.pagetable_iterator, ptr %18, i32 0, i32 0
  %20 = load i32, ptr %19, align 4
  %21 = zext i32 %20 to i64
  %22 = getelementptr inbounds nuw %struct.PagetableEntry, ptr %17, i64 %21
  store ptr %22, ptr %6, align 8
  %23 = load ptr, ptr %5, align 8
  %24 = getelementptr inbounds nuw %struct.pagetable_iterator, ptr %23, i32 0, i32 0
  %25 = load i32, ptr %24, align 4
  %26 = sub i32 %25, 1
  %27 = load ptr, ptr %4, align 8
  %28 = getelementptr inbounds nuw %struct.pagetable_hash, ptr %27, i32 0, i32 2
  %29 = load i32, ptr %28, align 4
  %30 = and i32 %26, %29
  %31 = load ptr, ptr %5, align 8
  %32 = getelementptr inbounds nuw %struct.pagetable_iterator, ptr %31, i32 0, i32 0
  store i32 %30, ptr %32, align 4
  %33 = load ptr, ptr %5, align 8
  %34 = getelementptr inbounds nuw %struct.pagetable_iterator, ptr %33, i32 0, i32 0
  %35 = load i32, ptr %34, align 4
  %36 = load ptr, ptr %4, align 8
  %37 = getelementptr inbounds nuw %struct.pagetable_hash, ptr %36, i32 0, i32 2
  %38 = load i32, ptr %37, align 4
  %39 = and i32 %35, %38
  %40 = load ptr, ptr %5, align 8
  %41 = getelementptr inbounds nuw %struct.pagetable_iterator, ptr %40, i32 0, i32 1
  %42 = load i32, ptr %41, align 4
  %43 = load ptr, ptr %4, align 8
  %44 = getelementptr inbounds nuw %struct.pagetable_hash, ptr %43, i32 0, i32 2
  %45 = load i32, ptr %44, align 4
  %46 = and i32 %42, %45
  %47 = icmp eq i32 %39, %46
  br i1 %47, label %48, label %51

48:                                               ; preds = %14
  %49 = load ptr, ptr %5, align 8
  %50 = getelementptr inbounds nuw %struct.pagetable_iterator, ptr %49, i32 0, i32 2
  store i8 1, ptr %50, align 4
  br label %51

51:                                               ; preds = %48, %14
  %52 = load ptr, ptr %6, align 8
  %53 = getelementptr inbounds nuw %struct.PagetableEntry, ptr %52, i32 0, i32 1
  %54 = load i8, ptr %53, align 4
  %55 = sext i8 %54 to i32
  %56 = icmp eq i32 %55, 1
  br i1 %56, label %57, label %59

57:                                               ; preds = %51
  %58 = load ptr, ptr %6, align 8
  store ptr %58, ptr %3, align 8
  store i32 1, ptr %7, align 4
  br label %60

59:                                               ; preds = %51
  store i32 0, ptr %7, align 4
  br label %60

60:                                               ; preds = %59, %57
  call void @llvm.lifetime.end.p0(i64 8, ptr %6) #9
  %61 = load i32, ptr %7, align 4
  switch i32 %61, label %66 [
    i32 0, label %62
    i32 1, label %64
  ]

62:                                               ; preds = %60
  br label %8, !llvm.loop !17

63:                                               ; preds = %8
  store ptr null, ptr %3, align 8
  br label %64

64:                                               ; preds = %63, %60
  %65 = load ptr, ptr %3, align 8
  ret ptr %65

66:                                               ; preds = %60
  unreachable
}

; Function Attrs: inlinehint nounwind uwtable
define internal void @pagetable_start_iterate(ptr noundef %0, ptr noundef %1) #2 {
  %3 = alloca ptr, align 8
  %4 = alloca ptr, align 8
  %5 = alloca i64, align 8
  %6 = alloca i32, align 4
  %7 = alloca i32, align 4
  %8 = alloca ptr, align 8
  store ptr %0, ptr %3, align 8
  store ptr %1, ptr %4, align 8
  call void @llvm.lifetime.start.p0(i64 8, ptr %5) #9
  store i64 -1, ptr %5, align 8
  call void @llvm.lifetime.start.p0(i64 4, ptr %6) #9
  store i32 0, ptr %6, align 4
  br label %9

9:                                                ; preds = %36, %2
  %10 = load i32, ptr %6, align 4
  %11 = zext i32 %10 to i64
  %12 = load ptr, ptr %3, align 8
  %13 = getelementptr inbounds nuw %struct.pagetable_hash, ptr %12, i32 0, i32 0
  %14 = load i64, ptr %13, align 8
  %15 = icmp ult i64 %11, %14
  br i1 %15, label %17, label %16

16:                                               ; preds = %9
  store i32 2, ptr %7, align 4
  br label %39

17:                                               ; preds = %9
  call void @llvm.lifetime.start.p0(i64 8, ptr %8) #9
  %18 = load ptr, ptr %3, align 8
  %19 = getelementptr inbounds nuw %struct.pagetable_hash, ptr %18, i32 0, i32 4
  %20 = load ptr, ptr %19, align 8
  %21 = load i32, ptr %6, align 4
  %22 = zext i32 %21 to i64
  %23 = getelementptr inbounds nuw %struct.PagetableEntry, ptr %20, i64 %22
  store ptr %23, ptr %8, align 8
  %24 = load ptr, ptr %8, align 8
  %25 = getelementptr inbounds nuw %struct.PagetableEntry, ptr %24, i32 0, i32 1
  %26 = load i8, ptr %25, align 4
  %27 = sext i8 %26 to i32
  %28 = icmp ne i32 %27, 1
  br i1 %28, label %29, label %32

29:                                               ; preds = %17
  %30 = load i32, ptr %6, align 4
  %31 = zext i32 %30 to i64
  store i64 %31, ptr %5, align 8
  store i32 2, ptr %7, align 4
  br label %33

32:                                               ; preds = %17
  store i32 0, ptr %7, align 4
  br label %33

33:                                               ; preds = %32, %29
  call void @llvm.lifetime.end.p0(i64 8, ptr %8) #9
  %34 = load i32, ptr %7, align 4
  switch i32 %34, label %39 [
    i32 0, label %35
  ]

35:                                               ; preds = %33
  br label %36

36:                                               ; preds = %35
  %37 = load i32, ptr %6, align 4
  %38 = add i32 %37, 1
  store i32 %38, ptr %6, align 4
  br label %9, !llvm.loop !16

39:                                               ; preds = %33, %16
  call void @llvm.lifetime.end.p0(i64 4, ptr %6) #9
  br label %40

40:                                               ; preds = %39
  %41 = load i64, ptr %5, align 8
  %42 = trunc i64 %41 to i32
  %43 = load ptr, ptr %4, align 8
  %44 = getelementptr inbounds nuw %struct.pagetable_iterator, ptr %43, i32 0, i32 0
  store i32 %42, ptr %44, align 4
  %45 = load ptr, ptr %4, align 8
  %46 = getelementptr inbounds nuw %struct.pagetable_iterator, ptr %45, i32 0, i32 0
  %47 = load i32, ptr %46, align 4
  %48 = load ptr, ptr %4, align 8
  %49 = getelementptr inbounds nuw %struct.pagetable_iterator, ptr %48, i32 0, i32 1
  store i32 %47, ptr %49, align 4
  %50 = load ptr, ptr %4, align 8
  %51 = getelementptr inbounds nuw %struct.pagetable_iterator, ptr %50, i32 0, i32 2
  store i8 0, ptr %51, align 4
  call void @llvm.lifetime.end.p0(i64 8, ptr %5) #9
  ret void
}

; Function Attrs: nounwind uwtable
define dso_local ptr @tbm_begin_private_iterate(ptr noundef %0) #0 {
  %2 = alloca ptr, align 8
  %3 = alloca ptr, align 8
  %4 = alloca %struct.pagetable_iterator, align 4
  %5 = alloca ptr, align 8
  %6 = alloca i32, align 4
  %7 = alloca i32, align 4
  store ptr %0, ptr %2, align 8
  call void @llvm.lifetime.start.p0(i64 8, ptr %3) #9
  %8 = call ptr @palloc(i64 noundef 614)
  store ptr %8, ptr %3, align 8
  %9 = load ptr, ptr %2, align 8
  %10 = load ptr, ptr %3, align 8
  %11 = getelementptr inbounds nuw %struct.TBMPrivateIterator, ptr %10, i32 0, i32 0
  store ptr %9, ptr %11, align 8
  %12 = load ptr, ptr %3, align 8
  %13 = getelementptr inbounds nuw %struct.TBMPrivateIterator, ptr %12, i32 0, i32 1
  store i32 0, ptr %13, align 8
  %14 = load ptr, ptr %3, align 8
  %15 = getelementptr inbounds nuw %struct.TBMPrivateIterator, ptr %14, i32 0, i32 2
  store i32 0, ptr %15, align 4
  %16 = load ptr, ptr %3, align 8
  %17 = getelementptr inbounds nuw %struct.TBMPrivateIterator, ptr %16, i32 0, i32 3
  store i32 0, ptr %17, align 8
  %18 = load ptr, ptr %2, align 8
  %19 = getelementptr inbounds nuw %struct.TIDBitmap, ptr %18, i32 0, i32 2
  %20 = load i32, ptr %19, align 8
  %21 = icmp eq i32 %20, 2
  br i1 %21, label %22, label %124

22:                                               ; preds = %1
  %23 = load ptr, ptr %2, align 8
  %24 = getelementptr inbounds nuw %struct.TIDBitmap, ptr %23, i32 0, i32 8
  %25 = load i32, ptr %24, align 8
  %26 = icmp eq i32 %25, 0
  br i1 %26, label %27, label %124

27:                                               ; preds = %22
  call void @llvm.lifetime.start.p0(i64 12, ptr %4) #9
  call void @llvm.lifetime.start.p0(i64 8, ptr %5) #9
  call void @llvm.lifetime.start.p0(i64 4, ptr %6) #9
  call void @llvm.lifetime.start.p0(i64 4, ptr %7) #9
  %28 = load ptr, ptr %2, align 8
  %29 = getelementptr inbounds nuw %struct.TIDBitmap, ptr %28, i32 0, i32 11
  %30 = load ptr, ptr %29, align 8
  %31 = icmp ne ptr %30, null
  br i1 %31, label %49, label %32

32:                                               ; preds = %27
  %33 = load ptr, ptr %2, align 8
  %34 = getelementptr inbounds nuw %struct.TIDBitmap, ptr %33, i32 0, i32 6
  %35 = load i32, ptr %34, align 8
  %36 = icmp sgt i32 %35, 0
  br i1 %36, label %37, label %49

37:                                               ; preds = %32
  %38 = load ptr, ptr %2, align 8
  %39 = getelementptr inbounds nuw %struct.TIDBitmap, ptr %38, i32 0, i32 1
  %40 = load ptr, ptr %39, align 8
  %41 = load ptr, ptr %2, align 8
  %42 = getelementptr inbounds nuw %struct.TIDBitmap, ptr %41, i32 0, i32 6
  %43 = load i32, ptr %42, align 8
  %44 = sext i32 %43 to i64
  %45 = mul i64 %44, 8
  %46 = call ptr @MemoryContextAlloc(ptr noundef %40, i64 noundef %45)
  %47 = load ptr, ptr %2, align 8
  %48 = getelementptr inbounds nuw %struct.TIDBitmap, ptr %47, i32 0, i32 11
  store ptr %46, ptr %48, align 8
  br label %49

49:                                               ; preds = %37, %32, %27
  %50 = load ptr, ptr %2, align 8
  %51 = getelementptr inbounds nuw %struct.TIDBitmap, ptr %50, i32 0, i32 12
  %52 = load ptr, ptr %51, align 8
  %53 = icmp ne ptr %52, null
  br i1 %53, label %71, label %54

54:                                               ; preds = %49
  %55 = load ptr, ptr %2, align 8
  %56 = getelementptr inbounds nuw %struct.TIDBitmap, ptr %55, i32 0, i32 7
  %57 = load i32, ptr %56, align 4
  %58 = icmp sgt i32 %57, 0
  br i1 %58, label %59, label %71

59:                                               ; preds = %54
  %60 = load ptr, ptr %2, align 8
  %61 = getelementptr inbounds nuw %struct.TIDBitmap, ptr %60, i32 0, i32 1
  %62 = load ptr, ptr %61, align 8
  %63 = load ptr, ptr %2, align 8
  %64 = getelementptr inbounds nuw %struct.TIDBitmap, ptr %63, i32 0, i32 7
  %65 = load i32, ptr %64, align 4
  %66 = sext i32 %65 to i64
  %67 = mul i64 %66, 8
  %68 = call ptr @MemoryContextAlloc(ptr noundef %62, i64 noundef %67)
  %69 = load ptr, ptr %2, align 8
  %70 = getelementptr inbounds nuw %struct.TIDBitmap, ptr %69, i32 0, i32 12
  store ptr %68, ptr %70, align 8
  br label %71

71:                                               ; preds = %59, %54, %49
  store i32 0, ptr %7, align 4
  store i32 0, ptr %6, align 4
  %72 = load ptr, ptr %2, align 8
  %73 = getelementptr inbounds nuw %struct.TIDBitmap, ptr %72, i32 0, i32 3
  %74 = load ptr, ptr %73, align 8
  call void @pagetable_start_iterate(ptr noundef %74, ptr noundef %4)
  br label %75

75:                                               ; preds = %104, %71
  %76 = load ptr, ptr %2, align 8
  %77 = getelementptr inbounds nuw %struct.TIDBitmap, ptr %76, i32 0, i32 3
  %78 = load ptr, ptr %77, align 8
  %79 = call ptr @pagetable_iterate(ptr noundef %78, ptr noundef %4)
  store ptr %79, ptr %5, align 8
  %80 = icmp ne ptr %79, null
  br i1 %80, label %81, label %105

81:                                               ; preds = %75
  %82 = load ptr, ptr %5, align 8
  %83 = getelementptr inbounds nuw %struct.PagetableEntry, ptr %82, i32 0, i32 2
  %84 = load i8, ptr %83, align 1, !range !4, !noundef !5
  %85 = trunc i8 %84 to i1
  br i1 %85, label %86, label %95

86:                                               ; preds = %81
  %87 = load ptr, ptr %5, align 8
  %88 = load ptr, ptr %2, align 8
  %89 = getelementptr inbounds nuw %struct.TIDBitmap, ptr %88, i32 0, i32 12
  %90 = load ptr, ptr %89, align 8
  %91 = load i32, ptr %7, align 4
  %92 = add i32 %91, 1
  store i32 %92, ptr %7, align 4
  %93 = sext i32 %91 to i64
  %94 = getelementptr inbounds ptr, ptr %90, i64 %93
  store ptr %87, ptr %94, align 8
  br label %104

95:                                               ; preds = %81
  %96 = load ptr, ptr %5, align 8
  %97 = load ptr, ptr %2, align 8
  %98 = getelementptr inbounds nuw %struct.TIDBitmap, ptr %97, i32 0, i32 11
  %99 = load ptr, ptr %98, align 8
  %100 = load i32, ptr %6, align 4
  %101 = add i32 %100, 1
  store i32 %101, ptr %6, align 4
  %102 = sext i32 %100 to i64
  %103 = getelementptr inbounds ptr, ptr %99, i64 %102
  store ptr %96, ptr %103, align 8
  br label %104

104:                                              ; preds = %95, %86
  br label %75, !llvm.loop !22

105:                                              ; preds = %75
  %106 = load i32, ptr %6, align 4
  %107 = icmp sgt i32 %106, 1
  br i1 %107, label %108, label %114

108:                                              ; preds = %105
  %109 = load ptr, ptr %2, align 8
  %110 = getelementptr inbounds nuw %struct.TIDBitmap, ptr %109, i32 0, i32 11
  %111 = load ptr, ptr %110, align 8
  %112 = load i32, ptr %6, align 4
  %113 = sext i32 %112 to i64
  call void @pg_qsort(ptr noundef %111, i64 noundef %113, i64 noundef 8, ptr noundef @tbm_comparator)
  br label %114

114:                                              ; preds = %108, %105
  %115 = load i32, ptr %7, align 4
  %116 = icmp sgt i32 %115, 1
  br i1 %116, label %117, label %123

117:                                              ; preds = %114
  %118 = load ptr, ptr %2, align 8
  %119 = getelementptr inbounds nuw %struct.TIDBitmap, ptr %118, i32 0, i32 12
  %120 = load ptr, ptr %119, align 8
  %121 = load i32, ptr %7, align 4
  %122 = sext i32 %121 to i64
  call void @pg_qsort(ptr noundef %120, i64 noundef %122, i64 noundef 8, ptr noundef @tbm_comparator)
  br label %123

123:                                              ; preds = %117, %114
  call void @llvm.lifetime.end.p0(i64 4, ptr %7) #9
  call void @llvm.lifetime.end.p0(i64 4, ptr %6) #9
  call void @llvm.lifetime.end.p0(i64 8, ptr %5) #9
  call void @llvm.lifetime.end.p0(i64 12, ptr %4) #9
  br label %124

124:                                              ; preds = %123, %22, %1
  %125 = load ptr, ptr %2, align 8
  %126 = getelementptr inbounds nuw %struct.TIDBitmap, ptr %125, i32 0, i32 8
  store i32 1, ptr %126, align 8
  %127 = load ptr, ptr %3, align 8
  call void @llvm.lifetime.end.p0(i64 8, ptr %3) #9
  ret ptr %127
}