; Function Attrs: nounwind uwtable
define dso_local noundef ptr @tbm_begin_private_iterate(ptr noundef %0) local_unnamed_addr #0 {
  %2 = tail call ptr @palloc(i64 noundef 614) #14
  store ptr %0, ptr %2, align 8
  %3 = getelementptr inbounds nuw i8, ptr %2, i64 8
  store i32 0, ptr %3, align 8
  %4 = getelementptr inbounds nuw i8, ptr %2, i64 12
  store i32 0, ptr %4, align 4
  %5 = getelementptr inbounds nuw i8, ptr %2, i64 16
  store i32 0, ptr %5, align 8
  %6 = getelementptr inbounds nuw i8, ptr %0, i64 16
  %7 = load i32, ptr %6, align 8
  %8 = icmp eq i32 %7, 2
  br i1 %8, label %9, label %91

9:                                                ; preds = %1
  %10 = getelementptr inbounds nuw i8, ptr %0, i64 48
  %11 = load i32, ptr %10, align 8
  %12 = icmp eq i32 %11, 0
  br i1 %12, label %13, label %91

13:                                               ; preds = %9
  %14 = getelementptr inbounds nuw i8, ptr %0, i64 104
  %15 = load ptr, ptr %14, align 8
  %.not = icmp eq ptr %15, null
  br i1 %.not, label %16, label %26

16:                                               ; preds = %13
  %17 = getelementptr inbounds nuw i8, ptr %0, i64 40
  %18 = load i32, ptr %17, align 8
  %19 = icmp sgt i32 %18, 0
  br i1 %19, label %20, label %26

20:                                               ; preds = %16
  %21 = getelementptr inbounds nuw i8, ptr %0, i64 8
  %22 = load ptr, ptr %21, align 8
  %23 = zext nneg i32 %18 to i64
  %24 = shl nuw nsw i64 %23, 3
  %25 = tail call ptr @MemoryContextAlloc(ptr noundef %22, i64 noundef %24) #14
  store ptr %25, ptr %14, align 8
  br label %26

26:                                               ; preds = %20, %16, %13
  %27 = getelementptr inbounds nuw i8, ptr %0, i64 112
  %28 = load ptr, ptr %27, align 8
  %.not38 = icmp eq ptr %28, null
  br i1 %.not38, label %29, label %39

29:                                               ; preds = %26
  %30 = getelementptr inbounds nuw i8, ptr %0, i64 44
  %31 = load i32, ptr %30, align 4
  %32 = icmp sgt i32 %31, 0
  br i1 %32, label %33, label %39

33:                                               ; preds = %29
  %34 = getelementptr inbounds nuw i8, ptr %0, i64 8
  %35 = load ptr, ptr %34, align 8
  %36 = zext nneg i32 %31 to i64
  %37 = shl nuw nsw i64 %36, 3
  %38 = tail call ptr @MemoryContextAlloc(ptr noundef %35, i64 noundef %37) #14
  store ptr %38, ptr %27, align 8
  br label %39

39:                                               ; preds = %33, %29, %26
  %40 = getelementptr inbounds nuw i8, ptr %0, i64 24
  %41 = load ptr, ptr %40, align 8
  %42 = load i64, ptr %41, align 8
  %.not18.i = icmp eq i64 %42, 0
  br i1 %.not18.i, label %pagetable_start_iterate.exit, label %.lr.ph.i

.lr.ph.i:                                         ; preds = %39
  %43 = getelementptr inbounds nuw i8, ptr %41, i64 24
  %44 = load ptr, ptr %43, align 8
  br label %45

45:                                               ; preds = %49, %.lr.ph.i
  %46 = phi i64 [ 0, %.lr.ph.i ], [ %51, %49 ]
  %.01315.i = phi i32 [ 0, %.lr.ph.i ], [ %50, %49 ]
  %47 = getelementptr inbounds nuw %struct.PagetableEntry, ptr %44, i64 %46, i32 1
  %48 = load i8, ptr %47, align 4
  %.not.i = icmp eq i8 %48, 1
  br i1 %.not.i, label %49, label %pagetable_start_iterate.exit

49:                                               ; preds = %45
  %50 = add i32 %.01315.i, 1
  %51 = zext i32 %50 to i64
  %52 = icmp ugt i64 %42, %51
  br i1 %52, label %45, label %pagetable_start_iterate.exit, !llvm.loop !9

pagetable_start_iterate.exit:                     ; preds = %45, %49, %39
  %.1.i = phi i32 [ -1, %39 ], [ %.01315.i, %45 ], [ -1, %49 ]
  br label %53

53:                                               ; preds = %78, %pagetable_start_iterate.exit
  %54 = phi ptr [ %41, %pagetable_start_iterate.exit ], [ %.pre, %78 ]
  %.sroa.7.0 = phi i1 [ false, %pagetable_start_iterate.exit ], [ %spec.select, %78 ]
  %.sroa.0.0 = phi i32 [ %.1.i, %pagetable_start_iterate.exit ], [ %65, %78 ]
  %.033 = phi i32 [ 0, %pagetable_start_iterate.exit ], [ %.134, %78 ]
  %.0 = phi i32 [ 0, %pagetable_start_iterate.exit ], [ %.1, %78 ]
  %55 = getelementptr inbounds nuw i8, ptr %54, i64 24
  %56 = getelementptr inbounds nuw i8, ptr %54, i64 12
  br label %57

57:                                               ; preds = %59, %53
  %.sroa.7.1 = phi i1 [ %.sroa.7.0, %53 ], [ %spec.select, %59 ]
  %.sroa.0.1 = phi i32 [ %.sroa.0.0, %53 ], [ %65, %59 ]
  %58 = phi i1 [ %.sroa.7.0, %53 ], [ %68, %59 ]
  br i1 %58, label %81, label %59

59:                                               ; preds = %57
  %60 = load ptr, ptr %55, align 8
  %61 = zext i32 %.sroa.0.1 to i64
  %62 = getelementptr inbounds nuw %struct.PagetableEntry, ptr %60, i64 %61
  %63 = add i32 %.sroa.0.1, -1
  %64 = load i32, ptr %56, align 4
  %65 = and i32 %64, %63
  %66 = xor i32 %63, %.1.i
  %67 = and i32 %64, %66
  %68 = icmp eq i32 %67, 0
  %spec.select = select i1 %68, i1 true, i1 %.sroa.7.1
  %69 = getelementptr inbounds nuw i8, ptr %62, i64 4
  %70 = load i8, ptr %69, align 4
  %.not.i40 = icmp eq i8 %70, 1
  br i1 %.not.i40, label %pagetable_iterate.exit, label %57

pagetable_iterate.exit:                           ; preds = %59
  %71 = getelementptr inbounds nuw i8, ptr %62, i64 5
  %72 = load i8, ptr %71, align 1, !range !4, !noundef !5
  %73 = trunc nuw i8 %72 to i1
  br i1 %73, label %74, label %76

74:                                               ; preds = %pagetable_iterate.exit
  %75 = add i32 %.0, 1
  br label %78

76:                                               ; preds = %pagetable_iterate.exit
  %77 = add i32 %.033, 1
  br label %78

78:                                               ; preds = %76, %74
  %.033.sink = phi i32 [ %.033, %76 ], [ %.0, %74 ]
  %.sink49.in = phi ptr [ %14, %76 ], [ %27, %74 ]
  %.134 = phi i32 [ %77, %76 ], [ %.033, %74 ]
  %.1 = phi i32 [ %.0, %76 ], [ %75, %74 ]
  %.sink49 = load ptr, ptr %.sink49.in, align 8
  %79 = sext i32 %.033.sink to i64
  %80 = getelementptr inbounds ptr, ptr %.sink49, i64 %79
  store ptr %62, ptr %80, align 8
  %.pre = load ptr, ptr %40, align 8
  br label %53, !llvm.loop !18

81:                                               ; preds = %57
  %82 = icmp sgt i32 %.033, 1
  br i1 %82, label %83, label %86

83:                                               ; preds = %81
  %84 = load ptr, ptr %14, align 8
  %85 = zext nneg i32 %.033 to i64
  tail call void @pg_qsort(ptr noundef %84, i64 noundef %85, i64 noundef 8, ptr noundef nonnull @tbm_comparator) #14
  br label %86

86:                                               ; preds = %83, %81
  %87 = icmp sgt i32 %.0, 1
  br i1 %87, label %88, label %91

88:                                               ; preds = %86
  %89 = load ptr, ptr %27, align 8
  %90 = zext nneg i32 %.0 to i64
  tail call void @pg_qsort(ptr noundef %89, i64 noundef %90, i64 noundef 8, ptr noundef nonnull @tbm_comparator) #14
  br label %91

91:                                               ; preds = %86, %88, %9, %1
  %92 = getelementptr inbounds nuw i8, ptr %0, i64 48
  store i32 1, ptr %92, align 8
  ret ptr %2
}